target datalayout = "e-m:e-p270:32:32-p271:32:32-p272:64:64-i64:64-i128:128-f80:128-n8:16:32:64-S128"
target triple = "x86_64-unknown-linux-gnu"

%"class.recfun::util" = type { ptr, i32, ptr }

@_ZN6recfun3defC1ER11ast_manageriRK6symboljPKP4sortS7_b = hidden unnamed_addr alias void (ptr, ptr, i32, ptr, i32, ptr, ptr, i1), ptr @_ZN6recfun3defC2ER11ast_manageriRK6symboljPKP4sortS7_b

; Function Attrs: mustprogress nounwind uwtable
define linkonce_odr hidden noundef nonnull align 8 dereferenceable(976) ptr @_ZN6recfun4util1mEv(ptr noundef nonnull align 8 dereferenceable(24) %this) #5 comdat align 2 {
entry:
  %this.addr = alloca ptr, align 8
  store ptr %this, ptr %this.addr, align 8
  %this1 = load ptr, ptr %this.addr, align 8
  %m_manager = getelementptr inbounds %"class.recfun::util", ptr %this1, i32 0, i32 0
  %0 = load ptr, ptr %m_manager, align 8
  ret ptr %0
}

; Function Attrs: mustprogress uwtable
define hidden noundef ptr @_ZN6recfun4util8decl_funERK6symboljPKP4sortS5_b(ptr noundef nonnull align 8 dereferenceable(24) %this, ptr noundef nonnull align 8 dereferenceable(8) %name, i32 noundef %n, ptr noundef %domain, ptr noundef %range, i1 noundef zeroext %is_generated) #4 align 2 {
entry:
  %this.addr = alloca ptr, align 8
  %name.addr = alloca ptr, align 8
  %n.addr = alloca i32, align 4
  %domain.addr = alloca ptr, align 8
  %range.addr = alloca ptr, align 8
  %is_generated.addr = alloca i8, align 1
  store ptr %this, ptr %this.addr, align 8
  store ptr %name, ptr %name.addr, align 8
  store i32 %n, ptr %n.addr, align 4
  store ptr %domain, ptr %domain.addr, align 8
  store ptr %range, ptr %range.addr, align 8
  %frombool = zext i1 %is_generated to i8
  store i8 %frombool, ptr %is_generated.addr, align 1
  %this1 = load ptr, ptr %this.addr, align 8
  %call = call noalias noundef ptr @_ZN6memory8allocateEm(i64 noundef 112)
  %call2 = call noundef nonnull align 8 dereferenceable(976) ptr @_ZN6recfun4util1mEv(ptr noundef nonnull align 8 dereferenceable(24) %this1)
  %m_fid = getelementptr inbounds %"class.recfun::util", ptr %this1, i32 0, i32 1
  %0 = load i32, ptr %m_fid, align 8
  %1 = load ptr, ptr %name.addr, align 8
  %2 = load i32, ptr %n.addr, align 4
  %3 = load ptr, ptr %domain.addr, align 8
  %4 = load ptr, ptr %range.addr, align 8
  %5 = load i8, ptr %is_generated.addr, align 1
  %tobool = trunc i8 %5 to i1
  call void @_ZN6recfun3defC1ER11ast_manageriRK6symboljPKP4sortS7_b(ptr noundef nonnull align 8 dereferenceable(109) %call, ptr noundef nonnull align 8 dereferenceable(976) %call2, i32 noundef %0, ptr noundef nonnull align 8 dereferenceable(8) %1, i32 noundef %2, ptr noundef %3, ptr noundef %4, i1 noundef zeroext %tobool)
  ret ptr %call
}