; Function Attrs: mustprogress uwtable
define hidden noundef ptr @_ZN6recfun4util8decl_funERK6symboljPKP4sortS5_b(ptr nocapture noundef nonnull readonly align 8 dereferenceable(24) %this, ptr noundef nonnull align 8 dereferenceable(8) %name, i32 noundef %n, ptr noundef %domain, ptr noundef %range, i1 noundef zeroext %is_generated) local_unnamed_addr #3 align 2 {
entry:
  %call = tail call noalias noundef ptr @_ZN6memory8allocateEm(i64 noundef 112)
  %0 = load ptr, ptr %this, align 8
  %m_fid = getelementptr inbounds i8, ptr %this, i64 8
  %1 = load i32, ptr %m_fid, align 8
  tail call void @_ZN6recfun3defC2ER11ast_manageriRK6symboljPKP4sortS7_b(ptr noundef nonnull align 8 dereferenceable(109) %call, ptr noundef nonnull align 8 dereferenceable(976) %0, i32 noundef %1, ptr noundef nonnull align 8 dereferenceable(8) %name, i32 noundef %n, ptr noundef %domain, ptr noundef %range, i1 noundef zeroext %is_generated)
  ret ptr %call
}